target datalayout = "e-m:e-p270:32:32-p271:32:32-p272:64:64-i64:64-i128:128-f80:128-n8:16:32:64-S128"
target triple = "x86_64-pc-linux-gnu"

%struct.TempRow = type { i16, i16 }
%struct.TempAliasTable = type { ptr, ptr, ptr, ptr }

; Function Attrs: mustprogress uwtable
define internal noundef i32 @_ZL14io_compareRowsPKvS0_S0_(ptr noundef %0, ptr noundef %1, ptr noundef %2) #2 {
  %4 = alloca ptr, align 8
  %5 = alloca ptr, align 8
  %6 = alloca ptr, align 8
  %7 = alloca [60 x i8], align 16
  %8 = alloca [60 x i8], align 16
  %9 = alloca ptr, align 8
  %10 = alloca ptr, align 8
  store ptr %0, ptr %4, align 8, !tbaa !17
  store ptr %1, ptr %5, align 8, !tbaa !17
  store ptr %2, ptr %6, align 8, !tbaa !17
  call void @llvm.lifetime.start.p0(i64 60, ptr %7) #12
  call void @llvm.lifetime.start.p0(i64 60, ptr %8) #12
  call void @llvm.lifetime.start.p0(i64 8, ptr %9) #12
  %11 = load ptr, ptr %4, align 8, !tbaa !17
  store ptr %11, ptr %9, align 8, !tbaa !86
  call void @llvm.lifetime.start.p0(i64 8, ptr %10) #12
  %12 = load ptr, ptr %9, align 8, !tbaa !86
  %13 = getelementptr inbounds nuw %struct.TempAliasTable, ptr %12, i32 0, i32 0
  %14 = load ptr, ptr %13, align 8, !tbaa !72
  store ptr %14, ptr %10, align 8, !tbaa !3
  %15 = load ptr, ptr %9, align 8, !tbaa !86
  %16 = getelementptr inbounds nuw %struct.TempAliasTable, ptr %15, i32 0, i32 3
  %17 = load ptr, ptr %16, align 8, !tbaa !77
  %18 = getelementptr inbounds [60 x i8], ptr %7, i64 0, i64 0
  %19 = load ptr, ptr %10, align 8, !tbaa !3
  %20 = load ptr, ptr %5, align 8, !tbaa !17
  %21 = getelementptr inbounds nuw %struct.TempRow, ptr %20, i32 0, i32 0
  %22 = load i16, ptr %21, align 2, !tbaa !79
  %23 = zext i16 %22 to i32
  %24 = mul nsw i32 2, %23
  %25 = sext i32 %24 to i64
  %26 = getelementptr inbounds i8, ptr %19, i64 %25
  %27 = call noundef ptr %17(ptr noundef %18, ptr noundef %26)
  %28 = load ptr, ptr %9, align 8, !tbaa !86
  %29 = getelementptr inbounds nuw %struct.TempAliasTable, ptr %28, i32 0, i32 3
  %30 = load ptr, ptr %29, align 8, !tbaa !77
  %31 = getelementptr inbounds [60 x i8], ptr %8, i64 0, i64 0
  %32 = load ptr, ptr %10, align 8, !tbaa !3
  %33 = load ptr, ptr %6, align 8, !tbaa !17
  %34 = getelementptr inbounds nuw %struct.TempRow, ptr %33, i32 0, i32 0
  %35 = load i16, ptr %34, align 2, !tbaa !79
  %36 = zext i16 %35 to i32
  %37 = mul nsw i32 2, %36
  %38 = sext i32 %37 to i64
  %39 = getelementptr inbounds i8, ptr %32, i64 %38
  %40 = call noundef ptr %30(ptr noundef %31, ptr noundef %39)
  %41 = call i32 @strcmp(ptr noundef %27, ptr noundef %40) #13
  call void @llvm.lifetime.end.p0(i64 8, ptr %10) #12
  call void @llvm.lifetime.end.p0(i64 8, ptr %9) #12
  call void @llvm.lifetime.end.p0(i64 60, ptr %8) #12
  call void @llvm.lifetime.end.p0(i64 60, ptr %7) #12
  ret i32 %41
}