; Function Attrs: mustprogress uwtable
define internal noundef i32 @_ZL14io_compareRowsPKvS0_S0_(ptr noundef readonly captures(none) %0, ptr noundef readonly captures(none) %1, ptr noundef readonly captures(none) %2) #3 {
  %4 = alloca [60 x i8], align 16
  %5 = alloca [60 x i8], align 16
  call void @llvm.lifetime.start.p0(i64 60, ptr nonnull %4) #14
  call void @llvm.lifetime.start.p0(i64 60, ptr nonnull %5) #14
  %6 = load ptr, ptr %0, align 8, !tbaa !71
  %7 = getelementptr inbounds nuw i8, ptr %0, i64 24
  %8 = load ptr, ptr %7, align 8, !tbaa !76
  %9 = load i16, ptr %1, align 2, !tbaa !78
  %10 = zext i16 %9 to i64
  %11 = shl nuw nsw i64 %10, 1
  %12 = getelementptr inbounds nuw i8, ptr %6, i64 %11
  %13 = call noundef ptr %8(ptr noundef nonnull %4, ptr noundef %12)
  %14 = load ptr, ptr %7, align 8, !tbaa !76
  %15 = load i16, ptr %2, align 2, !tbaa !78
  %16 = zext i16 %15 to i64
  %17 = shl nuw nsw i64 %16, 1
  %18 = getelementptr inbounds nuw i8, ptr %6, i64 %17
  %19 = call noundef ptr %14(ptr noundef nonnull %5, ptr noundef %18)
  %20 = call i32 @strcmp(ptr noundef nonnull dereferenceable(1) %13, ptr noundef nonnull dereferenceable(1) %19) #15
  call void @llvm.lifetime.end.p0(i64 60, ptr nonnull %5) #14
  call void @llvm.lifetime.end.p0(i64 60, ptr nonnull %4) #14
  ret i32 %20
}